target datalayout = "e-m:e-p270:32:32-p271:32:32-p272:64:64-i64:64-i128:128-f80:128-n8:16:32:64-S128"
target triple = "x86_64-pc-linux-gnu"

; Function Attrs: nounwind uwtable
define internal void @zbee_sec_hash(ptr noundef %0, i32 noundef %1, ptr noundef %2) #0 {
  %4 = alloca ptr, align 8
  %5 = alloca i32, align 4
  %6 = alloca ptr, align 8
  %7 = alloca [16 x i8], align 16
  %8 = alloca i32, align 4
  %9 = alloca i32, align 4
  %10 = alloca ptr, align 8
  store ptr %0, ptr %4, align 8
  store i32 %1, ptr %5, align 4
  store ptr %2, ptr %6, align 8
  %11 = load ptr, ptr %6, align 8
  call void @llvm.memset.p0.i64(ptr align 1 %11, i8 0, i64 16, i1 false)
  %12 = call i32 @gcry_cipher_open(ptr noundef %10, i32 noundef 7, i32 noundef 1, i32 noundef 0)
  %13 = icmp ne i32 %12, 0
  br i1 %13, label %14, label %15

14:                                               ; preds = %3
  br label %155

15:                                               ; preds = %3
  store i32 0, ptr %8, align 4
  store i32 0, ptr %9, align 4
  br label %16

16:                                               ; preds = %62, %15
  %17 = load i32, ptr %8, align 4
  %18 = load i32, ptr %5, align 4
  %19 = icmp ult i32 %17, %18
  br i1 %19, label %20, label %63

20:                                               ; preds = %16
  %21 = load ptr, ptr %4, align 8
  %22 = load i32, ptr %8, align 4
  %23 = add i32 %22, 1
  store i32 %23, ptr %8, align 4
  %24 = zext i32 %22 to i64
  %25 = getelementptr i8, ptr %21, i64 %24
  %26 = load i8, ptr %25, align 1
  %27 = load i32, ptr %9, align 4
  %28 = add i32 %27, 1
  store i32 %28, ptr %9, align 4
  %29 = zext i32 %27 to i64
  %30 = getelementptr [16 x i8], ptr %7, i64 0, i64 %29
  store i8 %26, ptr %30, align 1
  %31 = load i32, ptr %9, align 4
  %32 = icmp uge i32 %31, 16
  br i1 %32, label %33, label %62

33:                                               ; preds = %20
  %34 = load ptr, ptr %10, align 8
  %35 = load ptr, ptr %6, align 8
  %36 = call i32 @gcry_cipher_setkey(ptr noundef %34, ptr noundef %35, i64 noundef 16)
  %37 = load ptr, ptr %10, align 8
  %38 = load ptr, ptr %6, align 8
  %39 = getelementptr inbounds [16 x i8], ptr %7, i64 0, i64 0
  %40 = call i32 @gcry_cipher_encrypt(ptr noundef %37, ptr noundef %38, i64 noundef 16, ptr noundef %39, i64 noundef 16)
  store i32 0, ptr %9, align 4
  br label %41

41:                                               ; preds = %58, %33
  %42 = load i32, ptr %9, align 4
  %43 = icmp ult i32 %42, 16
  br i1 %43, label %44, label %61

44:                                               ; preds = %41
  %45 = load i32, ptr %9, align 4
  %46 = zext i32 %45 to i64
  %47 = getelementptr [16 x i8], ptr %7, i64 0, i64 %46
  %48 = load i8, ptr %47, align 1
  %49 = zext i8 %48 to i32
  %50 = load ptr, ptr %6, align 8
  %51 = load i32, ptr %9, align 4
  %52 = zext i32 %51 to i64
  %53 = getelementptr i8, ptr %50, i64 %52
  %54 = load i8, ptr %53, align 1
  %55 = zext i8 %54 to i32
  %56 = xor i32 %55, %49
  %57 = trunc i32 %56 to i8
  store i8 %57, ptr %53, align 1
  br label %58

58:                                               ; preds = %44
  %59 = load i32, ptr %9, align 4
  %60 = add i32 %59, 1
  store i32 %60, ptr %9, align 4
  br label %41, !llvm.loop !18

61:                                               ; preds = %41
  store i32 0, ptr %9, align 4
  br label %62

62:                                               ; preds = %61, %20
  br label %16, !llvm.loop !19

63:                                               ; preds = %16
  %64 = load i32, ptr %9, align 4
  %65 = add i32 %64, 1
  store i32 %65, ptr %9, align 4
  %66 = zext i32 %64 to i64
  %67 = getelementptr [16 x i8], ptr %7, i64 0, i64 %66
  store i8 -128, ptr %67, align 1
  br label %68

68:                                               ; preds = %103, %63
  %69 = load i32, ptr %9, align 4
  %70 = icmp ne i32 %69, 14
  br i1 %70, label %71, label %108

71:                                               ; preds = %68
  %72 = load i32, ptr %9, align 4
  %73 = icmp uge i32 %72, 16
  br i1 %73, label %74, label %103

74:                                               ; preds = %71
  %75 = load ptr, ptr %10, align 8
  %76 = load ptr, ptr %6, align 8
  %77 = call i32 @gcry_cipher_setkey(ptr noundef %75, ptr noundef %76, i64 noundef 16)
  %78 = load ptr, ptr %10, align 8
  %79 = load ptr, ptr %6, align 8
  %80 = getelementptr inbounds [16 x i8], ptr %7, i64 0, i64 0
  %81 = call i32 @gcry_cipher_encrypt(ptr noundef %78, ptr noundef %79, i64 noundef 16, ptr noundef %80, i64 noundef 16)
  store i32 0, ptr %9, align 4
  br label %82

82:                                               ; preds = %99, %74
  %83 = load i32, ptr %9, align 4
  %84 = icmp ult i32 %83, 16
  br i1 %84, label %85, label %102

85:                                               ; preds = %82
  %86 = load i32, ptr %9, align 4
  %87 = zext i32 %86 to i64
  %88 = getelementptr [16 x i8], ptr %7, i64 0, i64 %87
  %89 = load i8, ptr %88, align 1
  %90 = zext i8 %89 to i32
  %91 = load ptr, ptr %6, align 8
  %92 = load i32, ptr %9, align 4
  %93 = zext i32 %92 to i64
  %94 = getelementptr i8, ptr %91, i64 %93
  %95 = load i8, ptr %94, align 1
  %96 = zext i8 %95 to i32
  %97 = xor i32 %96, %90
  %98 = trunc i32 %97 to i8
  store i8 %98, ptr %94, align 1
  br label %99

99:                                               ; preds = %85
  %100 = load i32, ptr %9, align 4
  %101 = add i32 %100, 1
  store i32 %101, ptr %9, align 4
  br label %82, !llvm.loop !20

102:                                              ; preds = %82
  store i32 0, ptr %9, align 4
  br label %103

103:                                              ; preds = %102, %71
  %104 = load i32, ptr %9, align 4
  %105 = add i32 %104, 1
  store i32 %105, ptr %9, align 4
  %106 = zext i32 %104 to i64
  %107 = getelementptr [16 x i8], ptr %7, i64 0, i64 %106
  store i8 0, ptr %107, align 1
  br label %68, !llvm.loop !21

108:                                              ; preds = %68
  %109 = load i32, ptr %5, align 4
  %110 = mul i32 %109, 8
  %111 = lshr i32 %110, 8
  %112 = and i32 %111, 255
  %113 = trunc i32 %112 to i8
  %114 = load i32, ptr %9, align 4
  %115 = add i32 %114, 1
  store i32 %115, ptr %9, align 4
  %116 = zext i32 %114 to i64
  %117 = getelementptr [16 x i8], ptr %7, i64 0, i64 %116
  store i8 %113, ptr %117, align 1
  %118 = load i32, ptr %5, align 4
  %119 = mul i32 %118, 8
  %120 = lshr i32 %119, 0
  %121 = and i32 %120, 255
  %122 = trunc i32 %121 to i8
  %123 = load i32, ptr %9, align 4
  %124 = zext i32 %123 to i64
  %125 = getelementptr [16 x i8], ptr %7, i64 0, i64 %124
  store i8 %122, ptr %125, align 1
  %126 = load ptr, ptr %10, align 8
  %127 = load ptr, ptr %6, align 8
  %128 = call i32 @gcry_cipher_setkey(ptr noundef %126, ptr noundef %127, i64 noundef 16)
  %129 = load ptr, ptr %10, align 8
  %130 = load ptr, ptr %6, align 8
  %131 = getelementptr inbounds [16 x i8], ptr %7, i64 0, i64 0
  %132 = call i32 @gcry_cipher_encrypt(ptr noundef %129, ptr noundef %130, i64 noundef 16, ptr noundef %131, i64 noundef 16)
  store i32 0, ptr %9, align 4
  br label %133

133:                                              ; preds = %150, %108
  %134 = load i32, ptr %9, align 4
  %135 = icmp ult i32 %134, 16
  br i1 %135, label %136, label %153

136:                                              ; preds = %133
  %137 = load i32, ptr %9, align 4
  %138 = zext i32 %137 to i64
  %139 = getelementptr [16 x i8], ptr %7, i64 0, i64 %138
  %140 = load i8, ptr %139, align 1
  %141 = zext i8 %140 to i32
  %142 = load ptr, ptr %6, align 8
  %143 = load i32, ptr %9, align 4
  %144 = zext i32 %143 to i64
  %145 = getelementptr i8, ptr %142, i64 %144
  %146 = load i8, ptr %145, align 1
  %147 = zext i8 %146 to i32
  %148 = xor i32 %147, %141
  %149 = trunc i32 %148 to i8
  store i8 %149, ptr %145, align 1
  br label %150

150:                                              ; preds = %136
  %151 = load i32, ptr %9, align 4
  %152 = add i32 %151, 1
  store i32 %152, ptr %9, align 4
  br label %133, !llvm.loop !22

153:                                              ; preds = %133
  %154 = load ptr, ptr %10, align 8
  call void @gcry_cipher_close(ptr noundef %154)
  br label %155

155:                                              ; preds = %153, %14
  ret void
}