; Function Attrs: nounwind uwtable
define internal fastcc void @zbee_sec_hash(ptr noundef nonnull readonly captures(none) %0, i32 noundef range(i32 17, 33) %1, ptr noundef initializes((0, 16)) %2) unnamed_addr #0 {
  %4 = alloca [16 x i8], align 16
  %5 = alloca ptr, align 8
  tail call void @llvm.memset.p0.i64(ptr noundef nonnull align 1 dereferenceable(16) %2, i8 0, i64 16, i1 false)
  %6 = call i32 @gcry_cipher_open(ptr noundef nonnull %5, i32 noundef 7, i32 noundef 1, i32 noundef 0) #11
  %.not = icmp eq i32 %6, 0
  br i1 %.not, label %.preheader.preheader, label %58

.preheader.preheader:                             ; preds = %3
  %wide.trip.count = zext nneg i32 %1 to i64
  br label %.preheader

.preheader:                                       ; preds = %.preheader.preheader, %.loopexit39
  %indvars.iv50 = phi i64 [ 0, %.preheader.preheader ], [ %indvars.iv.next51, %.loopexit39 ]
  %.042 = phi i32 [ 0, %.preheader.preheader ], [ %.1, %.loopexit39 ]
  %indvars.iv.next51 = add nuw nsw i64 %indvars.iv50, 1
  %7 = getelementptr i8, ptr %0, i64 %indvars.iv50
  %8 = load i8, ptr %7, align 1
  %9 = add nuw nsw i32 %.042, 1
  %10 = zext i32 %.042 to i64
  %11 = getelementptr [16 x i8], ptr %4, i64 0, i64 %10
  store i8 %8, ptr %11, align 1
  %12 = icmp ugt i32 %.042, 14
  br i1 %12, label %13, label %.loopexit39

13:                                               ; preds = %.preheader
  %14 = load ptr, ptr %5, align 8
  %15 = call i32 @gcry_cipher_setkey(ptr noundef %14, ptr noundef nonnull %2, i64 noundef 16) #11
  %16 = load ptr, ptr %5, align 8
  %17 = call i32 @gcry_cipher_encrypt(ptr noundef %16, ptr noundef nonnull %2, i64 noundef 16, ptr noundef nonnull %4, i64 noundef 16) #11
  br label %18

18:                                               ; preds = %13, %18
  %indvars.iv = phi i64 [ 0, %13 ], [ %indvars.iv.next, %18 ]
  %19 = getelementptr [16 x i8], ptr %4, i64 0, i64 %indvars.iv
  %20 = load i8, ptr %19, align 1
  %21 = getelementptr i8, ptr %2, i64 %indvars.iv
  %22 = load i8, ptr %21, align 1
  %23 = xor i8 %22, %20
  store i8 %23, ptr %21, align 1
  %indvars.iv.next = add nuw nsw i64 %indvars.iv, 1
  %exitcond.not = icmp eq i64 %indvars.iv.next, 16
  br i1 %exitcond.not, label %.loopexit39, label %18, !llvm.loop !15

.loopexit39:                                      ; preds = %18, %.preheader
  %.1 = phi i32 [ %9, %.preheader ], [ 0, %18 ]
  %exitcond53.not = icmp eq i64 %indvars.iv.next51, %wide.trip.count
  br i1 %exitcond53.not, label %24, label %.preheader, !llvm.loop !16

24:                                               ; preds = %.loopexit39
  %25 = zext nneg i32 %.1 to i64
  %26 = getelementptr [16 x i8], ptr %4, i64 0, i64 %25
  store i8 -128, ptr %26, align 1
  %.344 = add nuw nsw i32 %.1, 1
  %.not3845 = icmp eq i32 %.344, 14
  br i1 %.not3845, label %._crit_edge, label %.lr.ph

.lr.ph:                                           ; preds = %24, %.loopexit
  %.347 = phi i32 [ %.3, %.loopexit ], [ %.344, %24 ]
  %.3.in46 = phi i32 [ %.4, %.loopexit ], [ %.1, %24 ]
  %27 = icmp ugt i32 %.3.in46, 14
  br i1 %27, label %28, label %.loopexit

28:                                               ; preds = %.lr.ph
  %29 = load ptr, ptr %5, align 8
  %30 = call i32 @gcry_cipher_setkey(ptr noundef %29, ptr noundef nonnull %2, i64 noundef 16) #11
  %31 = load ptr, ptr %5, align 8
  %32 = call i32 @gcry_cipher_encrypt(ptr noundef %31, ptr noundef nonnull %2, i64 noundef 16, ptr noundef nonnull %4, i64 noundef 16) #11
  br label %33

33:                                               ; preds = %28, %33
  %indvars.iv54 = phi i64 [ 0, %28 ], [ %indvars.iv.next55, %33 ]
  %34 = getelementptr [16 x i8], ptr %4, i64 0, i64 %indvars.iv54
  %35 = load i8, ptr %34, align 1
  %36 = getelementptr i8, ptr %2, i64 %indvars.iv54
  %37 = load i8, ptr %36, align 1
  %38 = xor i8 %37, %35
  store i8 %38, ptr %36, align 1
  %indvars.iv.next55 = add nuw nsw i64 %indvars.iv54, 1
  %exitcond57.not = icmp eq i64 %indvars.iv.next55, 16
  br i1 %exitcond57.not, label %.loopexit, label %33, !llvm.loop !17

.loopexit:                                        ; preds = %33, %.lr.ph
  %.4 = phi i32 [ %.347, %.lr.ph ], [ 0, %33 ]
  %39 = zext nneg i32 %.4 to i64
  %40 = getelementptr [16 x i8], ptr %4, i64 0, i64 %39
  store i8 0, ptr %40, align 1
  %.3 = add nuw nsw i32 %.4, 1
  %.not38 = icmp eq i32 %.3, 14
  br i1 %.not38, label %._crit_edge, label %.lr.ph, !llvm.loop !18

._crit_edge:                                      ; preds = %.loopexit, %24
  %41 = lshr i32 %1, 5
  %42 = trunc nuw nsw i32 %41 to i8
  %43 = getelementptr inbounds nuw i8, ptr %4, i64 14
  store i8 %42, ptr %43, align 2
  %.tr = trunc nuw nsw i32 %1 to i8
  %44 = shl i8 %.tr, 3
  %45 = getelementptr inbounds nuw i8, ptr %4, i64 15
  store i8 %44, ptr %45, align 1
  %46 = load ptr, ptr %5, align 8
  %47 = call i32 @gcry_cipher_setkey(ptr noundef %46, ptr noundef nonnull %2, i64 noundef 16) #11
  %48 = load ptr, ptr %5, align 8
  %49 = call i32 @gcry_cipher_encrypt(ptr noundef %48, ptr noundef nonnull %2, i64 noundef 16, ptr noundef nonnull %4, i64 noundef 16) #11
  br label %50

50:                                               ; preds = %._crit_edge, %50
  %indvars.iv58 = phi i64 [ 0, %._crit_edge ], [ %indvars.iv.next59, %50 ]
  %51 = getelementptr [16 x i8], ptr %4, i64 0, i64 %indvars.iv58
  %52 = load i8, ptr %51, align 1
  %53 = getelementptr i8, ptr %2, i64 %indvars.iv58
  %54 = load i8, ptr %53, align 1
  %55 = xor i8 %54, %52
  store i8 %55, ptr %53, align 1
  %indvars.iv.next59 = add nuw nsw i64 %indvars.iv58, 1
  %exitcond61.not = icmp eq i64 %indvars.iv.next59, 16
  br i1 %exitcond61.not, label %56, label %50, !llvm.loop !19

56:                                               ; preds = %50
  %57 = load ptr, ptr %5, align 8
  call void @gcry_cipher_close(ptr noundef %57) #11
  br label %58

58:                                               ; preds = %3, %56
  ret void
}